target datalayout = "e-m:e-p270:32:32-p271:32:32-p272:64:64-i64:64-i128:128-f80:128-n8:16:32:64-S128"
target triple = "x86_64-pc-linux-gnu"

%struct.MEMO = type { i64, i64, i64, i64, %union.anon.1 }
%union.anon.1 = type { i64 }

@rb_eArgError = external global i64, align 8
@.str.93 = private unnamed_addr constant [30 x i8] c"attempt to drop negative size\00", align 1

; Function Attrs: inlinehint nounwind sspstrong willreturn memory(none) uwtable
define internal i64 @rbimpl_fix2long_by_idiv(i64 noundef %0) #6 {
  %2 = alloca i64, align 8
  %3 = alloca i64, align 8
  %4 = alloca i64, align 8
  %5 = alloca i64, align 8
  store i64 %0, ptr %2, align 8, !tbaa !14
  call void @llvm.lifetime.start.p0(i64 8, ptr %3) #22
  %6 = load i64, ptr %2, align 8, !tbaa !14
  %7 = sub i64 %6, 1
  store i64 %7, ptr %3, align 8, !tbaa !14
  call void @llvm.lifetime.start.p0(i64 8, ptr %4) #22
  %8 = load i64, ptr %3, align 8, !tbaa !14
  %9 = sdiv i64 %8, 2
  store i64 %9, ptr %4, align 8, !tbaa !14
  call void @llvm.lifetime.start.p0(i64 8, ptr %5) #22
  %10 = load i64, ptr %4, align 8, !tbaa !14
  store i64 %10, ptr %5, align 8, !tbaa !14
  %11 = load i64, ptr %5, align 8, !tbaa !14
  call void @llvm.lifetime.end.p0(i64 8, ptr %5) #22
  call void @llvm.lifetime.end.p0(i64 8, ptr %4) #22
  call void @llvm.lifetime.end.p0(i64 8, ptr %3) #22
  ret i64 %11
}

; Function Attrs: inlinehint nounwind sspstrong willreturn memory(none) uwtable
define internal i64 @rbimpl_fix2long_by_shift(i64 noundef %0) #6 {
  %2 = alloca i64, align 8
  %3 = alloca i64, align 8
  %4 = alloca i64, align 8
  %5 = alloca i64, align 8
  store i64 %0, ptr %2, align 8, !tbaa !14
  call void @llvm.lifetime.start.p0(i64 8, ptr %3) #22
  %6 = load i64, ptr %2, align 8, !tbaa !14
  store i64 %6, ptr %3, align 8, !tbaa !14
  call void @llvm.lifetime.start.p0(i64 8, ptr %4) #22
  %7 = load i64, ptr %3, align 8, !tbaa !14
  %8 = ashr i64 %7, 1
  store i64 %8, ptr %4, align 8, !tbaa !14
  call void @llvm.lifetime.start.p0(i64 8, ptr %5) #22
  %9 = load i64, ptr %4, align 8, !tbaa !14
  store i64 %9, ptr %5, align 8, !tbaa !14
  %10 = load i64, ptr %5, align 8, !tbaa !14
  call void @llvm.lifetime.end.p0(i64 8, ptr %5) #22
  call void @llvm.lifetime.end.p0(i64 8, ptr %4) #22
  call void @llvm.lifetime.end.p0(i64 8, ptr %3) #22
  ret i64 %10
}

; Function Attrs: inlinehint nounwind sspstrong willreturn memory(none) uwtable
define internal zeroext i1 @rbimpl_right_shift_is_arithmetic_p() #6 {
  ret i1 true
}

; Function Attrs: inlinehint nounwind sspstrong willreturn memory(none) uwtable
define internal i64 @rb_fix2long(i64 noundef %0) #6 {
  %2 = alloca i64, align 8
  %3 = alloca i64, align 8
  store i64 %0, ptr %3, align 8, !tbaa !14
  %4 = call zeroext i1 @rbimpl_right_shift_is_arithmetic_p() #25
  br i1 %4, label %5, label %8

5:                                                ; preds = %1
  %6 = load i64, ptr %3, align 8, !tbaa !14
  %7 = call i64 @rbimpl_fix2long_by_shift(i64 noundef %6) #25
  store i64 %7, ptr %2, align 8
  br label %11

8:                                                ; preds = %1
  %9 = load i64, ptr %3, align 8, !tbaa !14
  %10 = call i64 @rbimpl_fix2long_by_idiv(i64 noundef %9) #25
  store i64 %10, ptr %2, align 8
  br label %11

11:                                               ; preds = %8, %5
  %12 = load i64, ptr %2, align 8
  ret i64 %12
}

; Function Attrs: inlinehint nounwind sspstrong willreturn memory(none) uwtable
define internal zeroext i1 @RB_FIXNUM_P(i64 noundef %0) #6 {
  %2 = alloca i64, align 8
  store i64 %0, ptr %2, align 8, !tbaa !14
  %3 = load i64, ptr %2, align 8, !tbaa !14
  %4 = and i64 %3, 1
  %5 = icmp ne i64 %4, 0
  ret i1 %5
}

; Function Attrs: inlinehint nounwind sspstrong uwtable
define internal ptr @MEMO_NEW(i64 noundef %0, i64 noundef %1, i64 noundef %2) #3 {
  %4 = alloca i64, align 8
  %5 = alloca i64, align 8
  %6 = alloca i64, align 8
  %7 = alloca ptr, align 8
  store i64 %0, ptr %4, align 8, !tbaa !14
  store i64 %1, ptr %5, align 8, !tbaa !14
  store i64 %2, ptr %6, align 8, !tbaa !14
  call void @llvm.lifetime.start.p0(i64 8, ptr %7) #22
  %8 = call i64 @rb_imemo_new(i32 noundef 5, i64 noundef 0, i64 noundef 40)
  %9 = inttoptr i64 %8 to ptr
  store ptr %9, ptr %7, align 8, !tbaa !34
  %10 = load i64, ptr %4, align 8, !tbaa !14
  %11 = load ptr, ptr %7, align 8, !tbaa !34
  %12 = getelementptr inbounds nuw %struct.MEMO, ptr %11, i32 0, i32 2
  store i64 %10, ptr %12, align 8, !tbaa !14
  %13 = load i64, ptr %5, align 8, !tbaa !14
  %14 = load ptr, ptr %7, align 8, !tbaa !34
  %15 = getelementptr inbounds nuw %struct.MEMO, ptr %14, i32 0, i32 3
  store i64 %13, ptr %15, align 8, !tbaa !14
  %16 = load i64, ptr %6, align 8, !tbaa !14
  %17 = load ptr, ptr %7, align 8, !tbaa !34
  %18 = getelementptr inbounds nuw %struct.MEMO, ptr %17, i32 0, i32 4
  store i64 %16, ptr %18, align 8, !tbaa !31
  %19 = load ptr, ptr %7, align 8, !tbaa !34
  call void @llvm.lifetime.end.p0(i64 8, ptr %7) #22
  ret ptr %19
}

; Function Attrs: inlinehint nounwind sspstrong uwtable
define internal i64 @rb_num2long_inline(i64 noundef %0) #3 {
  %2 = alloca i64, align 8
  %3 = alloca i64, align 8
  store i64 %0, ptr %3, align 8, !tbaa !14
  %4 = load i64, ptr %3, align 8, !tbaa !14
  %5 = call zeroext i1 @RB_FIXNUM_P(i64 noundef %4) #25
  br i1 %5, label %6, label %9

6:                                                ; preds = %1
  %7 = load i64, ptr %3, align 8, !tbaa !14
  %8 = call i64 @rb_fix2long(i64 noundef %7) #25
  store i64 %8, ptr %2, align 8
  br label %12

9:                                                ; preds = %1
  %10 = load i64, ptr %3, align 8, !tbaa !14
  %11 = call i64 @rb_num2long(i64 noundef %10)
  store i64 %11, ptr %2, align 8
  br label %12

12:                                               ; preds = %9, %6
  %13 = load i64, ptr %2, align 8
  ret i64 %13
}

; Function Attrs: nounwind sspstrong uwtable
define internal i64 @enum_drop(i64 noundef %0, i64 noundef %1) #0 {
  %3 = alloca i64, align 8
  %4 = alloca i64, align 8
  %5 = alloca i64, align 8
  %6 = alloca ptr, align 8
  %7 = alloca i64, align 8
  store i64 %0, ptr %3, align 8, !tbaa !14
  store i64 %1, ptr %4, align 8, !tbaa !14
  call void @llvm.lifetime.start.p0(i64 8, ptr %5) #22
  call void @llvm.lifetime.start.p0(i64 8, ptr %6) #22
  call void @llvm.lifetime.start.p0(i64 8, ptr %7) #22
  %8 = load i64, ptr %4, align 8, !tbaa !14
  %9 = call i64 @rb_num2long_inline(i64 noundef %8)
  store i64 %9, ptr %7, align 8, !tbaa !14
  %10 = load i64, ptr %7, align 8, !tbaa !14
  %11 = icmp slt i64 %10, 0
  br i1 %11, label %12, label %14

12:                                               ; preds = %2
  %13 = load i64, ptr @rb_eArgError, align 8, !tbaa !14
  call void (i64, ptr, ...) @rb_raise(i64 noundef %13, ptr noundef @.str.93) #23
  unreachable

14:                                               ; preds = %2
  %15 = call i64 @rb_ary_new()
  store i64 %15, ptr %5, align 8, !tbaa !14
  %16 = load i64, ptr %5, align 8, !tbaa !14
  %17 = load i64, ptr %7, align 8, !tbaa !14
  %18 = call ptr @MEMO_NEW(i64 noundef %16, i64 noundef 0, i64 noundef %17)
  store ptr %18, ptr %6, align 8, !tbaa !34
  %19 = load i64, ptr %3, align 8, !tbaa !14
  %20 = load ptr, ptr %6, align 8, !tbaa !34
  %21 = ptrtoint ptr %20 to i64
  %22 = call i64 @rb_block_call(i64 noundef %19, i64 noundef 3073, i32 noundef 0, ptr noundef null, ptr noundef @drop_i, i64 noundef %21)
  %23 = load i64, ptr %5, align 8, !tbaa !14
  call void @llvm.lifetime.end.p0(i64 8, ptr %7) #22
  call void @llvm.lifetime.end.p0(i64 8, ptr %6) #22
  call void @llvm.lifetime.end.p0(i64 8, ptr %5) #22
  ret i64 %23
}