; Function Attrs: nounwind sspstrong uwtable
define internal i64 @enum_drop(i64 noundef %0, i64 noundef %1) #0 {
  %3 = and i64 %1, 1
  %.not.i = icmp eq i64 %3, 0
  br i1 %.not.i, label %6, label %4

4:                                                ; preds = %2
  %5 = ashr i64 %1, 1
  br label %rb_num2long_inline.exit

6:                                                ; preds = %2
  %7 = tail call i64 @rb_num2long(i64 noundef %1) #14
  br label %rb_num2long_inline.exit

rb_num2long_inline.exit:                          ; preds = %4, %6
  %.0.i = phi i64 [ %5, %4 ], [ %7, %6 ]
  %8 = icmp slt i64 %.0.i, 0
  br i1 %8, label %9, label %11

9:                                                ; preds = %rb_num2long_inline.exit
  %10 = load i64, ptr @rb_eArgError, align 8, !tbaa !7
  tail call void (i64, ptr, ...) @rb_raise(i64 noundef %10, ptr noundef nonnull @.str.93) #15
  unreachable

11:                                               ; preds = %rb_num2long_inline.exit
  %12 = tail call i64 @rb_ary_new() #14
  %13 = tail call i64 @rb_imemo_new(i32 noundef 5, i64 noundef 0, i64 noundef 40) #14
  %14 = inttoptr i64 %13 to ptr
  %15 = getelementptr inbounds nuw i8, ptr %14, i64 16
  store i64 %12, ptr %15, align 8, !tbaa !7
  %16 = getelementptr inbounds nuw i8, ptr %14, i64 24
  store i64 0, ptr %16, align 8, !tbaa !7
  %17 = getelementptr inbounds nuw i8, ptr %14, i64 32
  store i64 %.0.i, ptr %17, align 8, !tbaa !22
  %18 = tail call i64 @rb_block_call(i64 noundef %0, i64 noundef 3073, i32 noundef 0, ptr noundef null, ptr noundef nonnull @drop_i, i64 noundef %13) #14
  ret i64 %12
}